target datalayout = "e-m:e-p270:32:32-p271:32:32-p272:64:64-i64:64-i128:128-f80:128-n8:16:32:64-S128"
target triple = "x86_64-pc-linux-gnu"

%struct.H5G_dense_bt2_corder_rec_t = type { [7 x i8], i64 }

@H5G_init_g = external global i8, align 1
@H5_libterm_g = external global i8, align 1

; Function Attrs: nounwind uwtable
define internal i32 @H5G__dense_btree2_corder_decode(ptr noundef %0, ptr noundef %1, ptr noundef %2) #0 {
  %4 = alloca ptr, align 8
  %5 = alloca ptr, align 8
  %6 = alloca ptr, align 8
  %7 = alloca ptr, align 8
  %8 = alloca i64, align 8
  store ptr %0, ptr %4, align 8, !tbaa !43
  store ptr %1, ptr %5, align 8, !tbaa !3
  store ptr %2, ptr %6, align 8, !tbaa !3
  call void @llvm.lifetime.start.p0(i64 8, ptr %7) #7
  %9 = load ptr, ptr %5, align 8, !tbaa !3
  store ptr %9, ptr %7, align 8, !tbaa !49
  %10 = load i8, ptr @H5G_init_g, align 1, !tbaa !11, !range !13, !noundef !14
  %11 = trunc i8 %10 to i1
  br i1 %11, label %16, label %12

12:                                               ; preds = %3
  %13 = load i8, ptr @H5_libterm_g, align 1, !tbaa !11, !range !13, !noundef !14
  %14 = trunc i8 %13 to i1
  %15 = xor i1 %14, true
  br label %16

16:                                               ; preds = %12, %3
  %17 = phi i1 [ true, %3 ], [ %15, %12 ]
  %18 = xor i1 %17, true
  %19 = xor i1 %18, true
  %20 = zext i1 %19 to i32
  %21 = sext i32 %20 to i64
  %22 = call i64 @llvm.expect.i64(i64 %21, i64 1)
  %23 = icmp ne i64 %22, 0
  br i1 %23, label %24, label %57

24:                                               ; preds = %16
  br label %25

25:                                               ; preds = %24
  call void @llvm.lifetime.start.p0(i64 8, ptr %8) #7
  %26 = load ptr, ptr %7, align 8, !tbaa !49
  %27 = getelementptr inbounds nuw %struct.H5G_dense_bt2_corder_rec_t, ptr %26, i32 0, i32 1
  store i64 0, ptr %27, align 8, !tbaa !52
  %28 = load ptr, ptr %4, align 8, !tbaa !43
  %29 = getelementptr inbounds i8, ptr %28, i64 8
  store ptr %29, ptr %4, align 8, !tbaa !43
  store i64 0, ptr %8, align 8, !tbaa !42
  br label %30

30:                                               ; preds = %45, %25
  %31 = load i64, ptr %8, align 8, !tbaa !42
  %32 = icmp ult i64 %31, 8
  br i1 %32, label %33, label %48

33:                                               ; preds = %30
  %34 = load ptr, ptr %7, align 8, !tbaa !49
  %35 = getelementptr inbounds nuw %struct.H5G_dense_bt2_corder_rec_t, ptr %34, i32 0, i32 1
  %36 = load i64, ptr %35, align 8, !tbaa !52
  %37 = shl i64 %36, 8
  %38 = load ptr, ptr %4, align 8, !tbaa !43
  %39 = getelementptr inbounds i8, ptr %38, i32 -1
  store ptr %39, ptr %4, align 8, !tbaa !43
  %40 = load i8, ptr %39, align 1, !tbaa !44
  %41 = zext i8 %40 to i64
  %42 = or i64 %37, %41
  %43 = load ptr, ptr %7, align 8, !tbaa !49
  %44 = getelementptr inbounds nuw %struct.H5G_dense_bt2_corder_rec_t, ptr %43, i32 0, i32 1
  store i64 %42, ptr %44, align 8, !tbaa !52
  br label %45

45:                                               ; preds = %33
  %46 = load i64, ptr %8, align 8, !tbaa !42
  %47 = add i64 %46, 1
  store i64 %47, ptr %8, align 8, !tbaa !42
  br label %30, !llvm.loop !57

48:                                               ; preds = %30
  %49 = load ptr, ptr %4, align 8, !tbaa !43
  %50 = getelementptr inbounds i8, ptr %49, i64 8
  store ptr %50, ptr %4, align 8, !tbaa !43
  call void @llvm.lifetime.end.p0(i64 8, ptr %8) #7
  br label %51

51:                                               ; preds = %48
  br label %52

52:                                               ; preds = %51
  %53 = load ptr, ptr %7, align 8, !tbaa !49
  %54 = getelementptr inbounds nuw %struct.H5G_dense_bt2_corder_rec_t, ptr %53, i32 0, i32 0
  %55 = getelementptr inbounds [7 x i8], ptr %54, i64 0, i64 0
  %56 = load ptr, ptr %4, align 8, !tbaa !43
  call void @llvm.memcpy.p0.p0.i64(ptr align 8 %55, ptr align 1 %56, i64 7, i1 false)
  br label %57

57:                                               ; preds = %52, %16
  call void @llvm.lifetime.end.p0(i64 8, ptr %7) #7
  ret i32 0
}