; Function Attrs: nofree norecurse nosync nounwind memory(read, argmem: readwrite, inaccessiblemem: none) uwtable
define internal noundef i32 @H5G__dense_btree2_corder_decode(ptr noundef readonly captures(none) %0, ptr noundef writeonly captures(none) %1, ptr readnone captures(none) %2) #3 {
  %4 = load i8, ptr @H5G_init_g, align 1, !tbaa !3, !range !7, !noundef !8
  %5 = trunc nuw i8 %4 to i1
  %6 = load i8, ptr @H5_libterm_g, align 1, !range !7
  %7 = trunc nuw i8 %6 to i1
  %8 = xor i1 %7, true
  %9 = select i1 %5, i1 true, i1 %8
  br i1 %9, label %10, label %23, !prof !9

10:                                               ; preds = %3
  %11 = getelementptr inbounds nuw i8, ptr %1, i64 8
  store i64 0, ptr %11, align 8, !tbaa !41
  %12 = getelementptr inbounds nuw i8, ptr %0, i64 8
  br label %13

13:                                               ; preds = %10, %13
  %.012 = phi i64 [ 0, %10 ], [ %20, %13 ]
  %.01011 = phi ptr [ %12, %10 ], [ %16, %13 ]
  %14 = phi i64 [ 0, %10 ], [ %19, %13 ]
  %15 = shl i64 %14, 8
  %16 = getelementptr inbounds i8, ptr %.01011, i64 -1
  %17 = load i8, ptr %16, align 1, !tbaa !35
  %18 = zext i8 %17 to i64
  %19 = or disjoint i64 %15, %18
  store i64 %19, ptr %11, align 8, !tbaa !41
  %20 = add nuw nsw i64 %.012, 1
  %exitcond.not = icmp eq i64 %20, 8
  br i1 %exitcond.not, label %21, label %13, !llvm.loop !45

21:                                               ; preds = %13
  %22 = getelementptr inbounds nuw i8, ptr %.01011, i64 7
  tail call void @llvm.memcpy.p0.p0.i64(ptr noundef nonnull align 8 dereferenceable(7) %1, ptr noundef nonnull align 1 dereferenceable(7) %22, i64 7, i1 false)
  br label %23

23:                                               ; preds = %21, %3
  ret i32 0
}